target datalayout = "e-m:e-p270:32:32-p271:32:32-p272:64:64-i64:64-i128:128-f80:128-n8:16:32:64-S128"
target triple = "x86_64-pc-linux-gnu"

%struct.aclSelector = type { i32, [16 x i64], ptr, ptr, ptr, ptr }

; Function Attrs: nounwind uwtable
define dso_local void @ACLAddAllowedFirstArg(ptr noundef %0, i64 noundef %1, ptr noundef %2) #0 {
  %4 = alloca ptr, align 8
  %5 = alloca i64, align 8
  %6 = alloca ptr, align 8
  %7 = alloca i64, align 8
  %8 = alloca i32, align 4
  store ptr %0, ptr %4, align 8, !tbaa !32
  store i64 %1, ptr %5, align 8, !tbaa !10
  store ptr %2, ptr %6, align 8, !tbaa !5
  %9 = load ptr, ptr %4, align 8, !tbaa !32
  %10 = getelementptr inbounds nuw %struct.aclSelector, ptr %9, i32 0, i32 2
  %11 = load ptr, ptr %10, align 8, !tbaa !69
  %12 = icmp eq ptr %11, null
  br i1 %12, label %13, label %17

13:                                               ; preds = %3
  %14 = call noalias ptr @zcalloc(i64 noundef 8192) #13
  %15 = load ptr, ptr %4, align 8, !tbaa !32
  %16 = getelementptr inbounds nuw %struct.aclSelector, ptr %15, i32 0, i32 2
  store ptr %14, ptr %16, align 8, !tbaa !69
  br label %17

17:                                               ; preds = %13, %3
  call void @llvm.lifetime.start.p0(i64 8, ptr %7) #14
  store i64 0, ptr %7, align 8, !tbaa !10
  %18 = load ptr, ptr %4, align 8, !tbaa !32
  %19 = getelementptr inbounds nuw %struct.aclSelector, ptr %18, i32 0, i32 2
  %20 = load ptr, ptr %19, align 8, !tbaa !69
  %21 = load i64, ptr %5, align 8, !tbaa !10
  %22 = getelementptr inbounds nuw ptr, ptr %20, i64 %21
  %23 = load ptr, ptr %22, align 8, !tbaa !33
  %24 = icmp ne ptr %23, null
  br i1 %24, label %25, label %55

25:                                               ; preds = %17
  br label %26

26:                                               ; preds = %51, %25
  %27 = load ptr, ptr %4, align 8, !tbaa !32
  %28 = getelementptr inbounds nuw %struct.aclSelector, ptr %27, i32 0, i32 2
  %29 = load ptr, ptr %28, align 8, !tbaa !69
  %30 = load i64, ptr %5, align 8, !tbaa !10
  %31 = getelementptr inbounds nuw ptr, ptr %29, i64 %30
  %32 = load ptr, ptr %31, align 8, !tbaa !33
  %33 = load i64, ptr %7, align 8, !tbaa !10
  %34 = getelementptr inbounds ptr, ptr %32, i64 %33
  %35 = load ptr, ptr %34, align 8, !tbaa !5
  %36 = icmp ne ptr %35, null
  br i1 %36, label %37, label %54

37:                                               ; preds = %26
  %38 = load ptr, ptr %4, align 8, !tbaa !32
  %39 = getelementptr inbounds nuw %struct.aclSelector, ptr %38, i32 0, i32 2
  %40 = load ptr, ptr %39, align 8, !tbaa !69
  %41 = load i64, ptr %5, align 8, !tbaa !10
  %42 = getelementptr inbounds nuw ptr, ptr %40, i64 %41
  %43 = load ptr, ptr %42, align 8, !tbaa !33
  %44 = load i64, ptr %7, align 8, !tbaa !10
  %45 = getelementptr inbounds ptr, ptr %43, i64 %44
  %46 = load ptr, ptr %45, align 8, !tbaa !5
  %47 = load ptr, ptr %6, align 8, !tbaa !5
  %48 = call i32 @strcasecmp(ptr noundef %46, ptr noundef %47) #17
  %49 = icmp ne i32 %48, 0
  br i1 %49, label %51, label %50

50:                                               ; preds = %37
  store i32 1, ptr %8, align 4
  br label %92

51:                                               ; preds = %37
  %52 = load i64, ptr %7, align 8, !tbaa !10
  %53 = add nsw i64 %52, 1
  store i64 %53, ptr %7, align 8, !tbaa !10
  br label %26, !llvm.loop !80

54:                                               ; preds = %26
  br label %55

55:                                               ; preds = %54, %17
  %56 = load i64, ptr %7, align 8, !tbaa !10
  %57 = add nsw i64 %56, 2
  store i64 %57, ptr %7, align 8, !tbaa !10
  %58 = load ptr, ptr %4, align 8, !tbaa !32
  %59 = getelementptr inbounds nuw %struct.aclSelector, ptr %58, i32 0, i32 2
  %60 = load ptr, ptr %59, align 8, !tbaa !69
  %61 = load i64, ptr %5, align 8, !tbaa !10
  %62 = getelementptr inbounds nuw ptr, ptr %60, i64 %61
  %63 = load ptr, ptr %62, align 8, !tbaa !33
  %64 = load i64, ptr %7, align 8, !tbaa !10
  %65 = mul i64 8, %64
  %66 = call ptr @zrealloc(ptr noundef %63, i64 noundef %65) #18
  %67 = load ptr, ptr %4, align 8, !tbaa !32
  %68 = getelementptr inbounds nuw %struct.aclSelector, ptr %67, i32 0, i32 2
  %69 = load ptr, ptr %68, align 8, !tbaa !69
  %70 = load i64, ptr %5, align 8, !tbaa !10
  %71 = getelementptr inbounds nuw ptr, ptr %69, i64 %70
  store ptr %66, ptr %71, align 8, !tbaa !33
  %72 = load ptr, ptr %6, align 8, !tbaa !5
  %73 = call ptr @sdsnew(ptr noundef %72)
  %74 = load ptr, ptr %4, align 8, !tbaa !32
  %75 = getelementptr inbounds nuw %struct.aclSelector, ptr %74, i32 0, i32 2
  %76 = load ptr, ptr %75, align 8, !tbaa !69
  %77 = load i64, ptr %5, align 8, !tbaa !10
  %78 = getelementptr inbounds nuw ptr, ptr %76, i64 %77
  %79 = load ptr, ptr %78, align 8, !tbaa !33
  %80 = load i64, ptr %7, align 8, !tbaa !10
  %81 = sub nsw i64 %80, 2
  %82 = getelementptr inbounds ptr, ptr %79, i64 %81
  store ptr %73, ptr %82, align 8, !tbaa !5
  %83 = load ptr, ptr %4, align 8, !tbaa !32
  %84 = getelementptr inbounds nuw %struct.aclSelector, ptr %83, i32 0, i32 2
  %85 = load ptr, ptr %84, align 8, !tbaa !69
  %86 = load i64, ptr %5, align 8, !tbaa !10
  %87 = getelementptr inbounds nuw ptr, ptr %85, i64 %86
  %88 = load ptr, ptr %87, align 8, !tbaa !33
  %89 = load i64, ptr %7, align 8, !tbaa !10
  %90 = sub nsw i64 %89, 1
  %91 = getelementptr inbounds ptr, ptr %88, i64 %90
  store ptr null, ptr %91, align 8, !tbaa !5
  store i32 0, ptr %8, align 4
  br label %92

92:                                               ; preds = %55, %50
  call void @llvm.lifetime.end.p0(i64 8, ptr %7) #14
  %93 = load i32, ptr %8, align 4
  switch i32 %93, label %95 [
    i32 0, label %94
    i32 1, label %94
  ]

94:                                               ; preds = %92, %92
  ret void

95:                                               ; preds = %92
  unreachable
}