; Function Attrs: nounwind uwtable
define dso_local void @ACLAddAllowedFirstArg(ptr noundef captures(none) %0, i64 noundef %1, ptr noundef %2) local_unnamed_addr #0 {
  %4 = getelementptr inbounds nuw i8, ptr %0, i64 136
  %5 = load ptr, ptr %4, align 8, !tbaa !66
  %6 = icmp eq ptr %5, null
  br i1 %6, label %7, label %9

7:                                                ; preds = %3
  %8 = tail call noalias dereferenceable_or_null(8192) ptr @zcalloc(i64 noundef 8192) #26
  store ptr %8, ptr %4, align 8, !tbaa !66
  br label %9

9:                                                ; preds = %7, %3
  %10 = phi ptr [ %8, %7 ], [ %5, %3 ]
  %11 = getelementptr inbounds nuw ptr, ptr %10, i64 %1
  %12 = load ptr, ptr %11, align 8, !tbaa !73
  %.not = icmp eq ptr %12, null
  br i1 %.not, label %.loopexit, label %.preheader

.preheader:                                       ; preds = %9
  %13 = load ptr, ptr %12, align 8, !tbaa !29
  %.not2529 = icmp eq ptr %13, null
  br i1 %.not2529, label %.loopexit, label %.lr.ph

.lr.ph:                                           ; preds = %.preheader, %16
  %14 = phi ptr [ %19, %16 ], [ %13, %.preheader ]
  %.130 = phi i64 [ %17, %16 ], [ 0, %.preheader ]
  %15 = tail call i32 @strcasecmp(ptr noundef nonnull %14, ptr noundef %2) #29
  %.not26 = icmp eq i32 %15, 0
  br i1 %.not26, label %.loopexit27, label %16

16:                                               ; preds = %.lr.ph
  %17 = add nuw nsw i64 %.130, 1
  %18 = getelementptr inbounds nuw ptr, ptr %12, i64 %17
  %19 = load ptr, ptr %18, align 8, !tbaa !29
  %.not25 = icmp eq ptr %19, null
  br i1 %.not25, label %.loopexit, label %.lr.ph, !llvm.loop !76

.loopexit:                                        ; preds = %16, %.preheader, %9
  %.0 = phi i64 [ 0, %9 ], [ 0, %.preheader ], [ %17, %16 ]
  %20 = shl i64 %.0, 3
  %21 = add i64 %20, 16
  %22 = tail call ptr @zrealloc(ptr noundef %12, i64 noundef %21) #30
  %23 = load ptr, ptr %4, align 8, !tbaa !66
  %24 = getelementptr inbounds nuw ptr, ptr %23, i64 %1
  store ptr %22, ptr %24, align 8, !tbaa !73
  %25 = tail call ptr @sdsnew(ptr noundef %2) #25
  %26 = load ptr, ptr %4, align 8, !tbaa !66
  %27 = getelementptr inbounds nuw ptr, ptr %26, i64 %1
  %28 = load ptr, ptr %27, align 8, !tbaa !73
  %29 = getelementptr inbounds nuw ptr, ptr %28, i64 %.0
  store ptr %25, ptr %29, align 8, !tbaa !29
  %30 = getelementptr inbounds nuw i8, ptr %29, i64 8
  store ptr null, ptr %30, align 8, !tbaa !29
  br label %.loopexit27

.loopexit27:                                      ; preds = %.lr.ph, %.loopexit
  ret void
}